; Function Attrs: nounwind uwtable
define hidden noundef zeroext i1 @SDL_ShowCursor_REAL() local_unnamed_addr #0 {
  %1 = load i8, ptr getelementptr inbounds nuw (i8, ptr @SDL_mouse, i64 190), align 2, !range !3, !noundef !4
  %2 = trunc nuw i8 %1 to i1
  br i1 %2, label %3, label %5

3:                                                ; preds = %0
  %4 = tail call zeroext i1 @SDL_SetRelativeMouseMode(i1 noundef zeroext false)
  store i8 0, ptr getelementptr inbounds nuw (i8, ptr @SDL_mouse, i64 190), align 2
  br label %5

5:                                                ; preds = %3, %0
  %6 = load i8, ptr getelementptr inbounds nuw (i8, ptr @SDL_mouse, i64 288), align 8, !range !3, !noundef !4
  %7 = trunc nuw i8 %6 to i1
  br i1 %7, label %SDL_RedrawCursor.exit, label %8

8:                                                ; preds = %5
  store i8 1, ptr getelementptr inbounds nuw (i8, ptr @SDL_mouse, i64 288), align 8
  %9 = load ptr, ptr getelementptr inbounds nuw (i8, ptr @SDL_mouse, i64 16), align 8
  %.not12.i = icmp eq ptr %9, null
  br i1 %.not12.i, label %SDL_RedrawCursor.exit, label %10

10:                                               ; preds = %8
  %11 = load ptr, ptr getelementptr inbounds nuw (i8, ptr @SDL_mouse, i64 128), align 8
  %.not.i = icmp eq ptr %11, null
  %.val.i = load ptr, ptr getelementptr inbounds nuw (i8, ptr @SDL_mouse, i64 272), align 8
  %12 = load i8, ptr getelementptr inbounds nuw (i8, ptr @SDL_mouse, i64 185), align 1, !range !3
  %13 = trunc nuw i8 %12 to i1
  %14 = load i8, ptr getelementptr inbounds nuw (i8, ptr @SDL_mouse, i64 187), align 1, !range !3
  %15 = trunc nuw i8 %14 to i1
  %or.cond.i = select i1 %13, i1 %15, i1 false
  %.val14.i = load ptr, ptr getelementptr inbounds nuw (i8, ptr @SDL_mouse, i64 280), align 8
  %spec.select = select i1 %or.cond.i, ptr null, ptr %.val14.i
  %.1.i = select i1 %.not.i, ptr %.val.i, ptr %spec.select
  %16 = tail call zeroext i1 %9(ptr noundef %.1.i) #13
  br label %SDL_RedrawCursor.exit

SDL_RedrawCursor.exit:                            ; preds = %10, %8, %5
  ret i1 true
}